#include <math.h>
#include <stdio.h>
#include <stdlib.h>
#include <string.h>

int main()
{
    int n,i=0,m=0;
    scanf("%d\n",&n);
    char z[10000][255];
   for(i=0;i<n;i++)
       {scanf("%s\n",z[i]);
      for(m=0;m<255;m++)
     {if(z[i][m]=='A') {z[i][m]='T';continue;}
      if(z[i][m]=='T') {z[i][m]='A';continue;}
      if(z[i][m]=='G') {z[i][m]='C';continue;}
      if(z[i][m]=='C') {z[i][m]='G';continue;}
       }
    printf("%s\n",z[i]);
     }
return 0;
}